 HieOS

 Timestamp is 5bace768 (Thu Sep 27 23:21:28 2018)

 Preferred load address is 00100000

 Start         Length     Name                   Class
 0001:00000000 00000637H .text$mn                CODE
 0002:00000000 0000001cH .rdata                  DATA
 0002:0000001c 00000000H .edata                  DATA
 0002:0000001c 000000b0H .rdata$zzzdbg           DATA
 0003:00000000 00000004H .CRT$XCA                DATA
 0003:00000004 00000004H .CRT$XCZ                DATA
 0003:00000008 00000004H .CRT$XIA                DATA
 0003:0000000c 00000004H .CRT$XIZ                DATA
 0003:00000010 00000008H .data                   DATA
 0003:00000018 00001c10H .bss                    DATA

  Address         Publics by Value              Rva+Base       Lib:Object

 0000:00000000       ___hybrid_code_map         00000000     <absolute>
 0000:00000000       ___volatile_metadata       00000000     <absolute>
 0000:00000000       ___hybrid_auxiliary_iat    00000000     <absolute>
 0000:00000000       ___guard_longjmp_table     00000000     <absolute>
 0000:00000000       ___guard_fids_count        00000000     <absolute>
 0000:00000000       ___enclave_config          00000000     <absolute>
 0000:00000000       ___guard_flags             00000000     <absolute>
 0000:00000000       ___guard_longjmp_count     00000000     <absolute>
 0000:00000000       ___dynamic_value_reloc_table 00000000     <absolute>
 0000:00000000       ___guard_iat_table         00000000     <absolute>
 0000:00000000       ___hybrid_code_map_count   00000000     <absolute>
 0000:00000000       ___guard_iat_count         00000000     <absolute>
 0000:00000000       ___guard_fids_table        00000000     <absolute>
 0001:00000000       ?multiboot_entry@@YAXXZ    00100400 f   kmain.obj
 0001:00000040       ?kmain@@YAXKK@Z            00100440 f   kmain.obj
 0001:00000060       ?Clear@LasConsole@@YAXXZ   00100460 f   LasConsole.obj
 0001:000000b0       ?init@LasConsole@@YAXXZ    001004b0 f   LasConsole.obj
 0001:00000150       ?gdt_init@@YAXXZ           00100550 f   LasGDT.obj
 0001:00000210       ?gdt_set_descriptor@@YAXI_K0EE@Z 00100610 f   LasGDT.obj
 0001:000002e0       _memcpy                    001006e0 f   CommonLib:memory.obj
 0001:00000330       _memset                    00100730 f   CommonLib:memory.obj
 0001:00000360       _memcmp                    00100760 f   CommonLib:memory.obj
 0001:000003d0       _memmove                   001007d0 f   CommonLib:memory.obj
 0001:00000450       _memchr                    00100850 f   CommonLib:memory.obj
 0001:000004a0       _atexit                    001008a0 f   CommonLib:cstd.obj
 0001:000004f0       ?_atexit_init@@YAXXZ       001008f0 f   CommonLib:cstd.obj
 0001:00000510       ?Exit@@YAXXZ               00100910 f   CommonLib:cstd.obj
 0001:00000550       ?InitializeConstructors@@YAXXZ 00100950 f   CommonLib:cstd.obj
 0001:00000570       ?_purecall_handler@@YAHXZ  00100970 f   CommonLib:cstd.obj
 0001:00000580       __CIcos                    00100980 f   CommonLib:cstd.obj
 0001:00000590       __CIsin                    00100990 f   CommonLib:cstd.obj
 0001:000005a0       __CIsqrt                   001009a0 f   CommonLib:cstd.obj
 0001:000005b0       __ftol2_sse                001009b0 f   CommonLib:cstd.obj
 0001:000005c0       __aullshr                  001009c0 f   CommonLib:cstd.obj
 0001:000005e0       __dtol3                    001009e0 f   CommonLib:cstd.obj
 0001:000005f0       __dtoui3                   001009f0 f   CommonLib:cstd.obj
 0001:00000600       __dtoul3                   00100a00 f   CommonLib:cstd.obj
 0003:00000000       ?__xc_a@@3PAP6AXXZA        00101000     CommonLib:cstd.obj
 0003:00000004       ?__xc_z@@3PAP6AXXZA        00101004     CommonLib:cstd.obj
 0003:00000008       ?__xi_a@@3PAP6AXXZA        00101008     CommonLib:cstd.obj
 0003:0000000c       ?__xi_z@@3PAP6AXXZA        0010100c     CommonLib:cstd.obj
 0003:00000010       __fltused                  00101010     CommonLib:cstd.obj
 0003:00000898       ?runtimeTempBuffer@@3PADA  00101898     CommonLib:cstd.obj

 entry point at        0001:00000000

 Static symbols

 0001:00000610       ?_initterm@@YAXPAP6AXXZ0@Z 00100a10 f   CommonLib:cstd.obj
 0003:00000014       ?max_atexitlist_entries@@3IA 00101014     CommonLib:cstd.obj
 0003:00000018       ?_Color@LasConsole@@3W4ConsoleColor@@A 00101018     LasConsole.obj
 0003:0000001c       ?_Text@LasConsole@@3W4ConsoleColor@@A 0010101c     LasConsole.obj
 0003:00000020       ?_backGroundColor@LasConsole@@3W4ConsoleColor@@A 00101020     LasConsole.obj
 0003:00000024       ?_xPos@LasConsole@@3IA     00101024     LasConsole.obj
 0003:00000028       ?_yPos@LasConsole@@3IA     00101028     LasConsole.obj
 0003:0000002c       ?_pVideoMemory@LasConsole@@3PAGA 0010102c     LasConsole.obj
 0003:00000030       ?_ScreenHeight@LasConsole@@3IA 00101030     LasConsole.obj
 0003:00000034       ?_ScreenWidth@LasConsole@@3IA 00101034     LasConsole.obj
 0003:00000038       ?_VideoCardType@LasConsole@@3GA 00101038     LasConsole.obj
 0003:00000040       ?gdt@@3PAUGDT_descripter@@A 00101040     LasGDT.obj
 0003:00000090       ?gdtr@@3UGDTR@@A           00101090     LasGDT.obj
 0003:00000098       ?idt@@3PAUIDT_descripter@@A 00101098     LasIDT.obj
 0003:00001c20       ?pf_atexitlist@@3PAP6AXXZA 00102c20     CommonLib:cstd.obj
 0003:00001c24       ?cur_atexitlist_entries@@3IA 00102c24     CommonLib:cstd.obj

 Exports

  ordinal    name

